; Function Attrs: mustprogress uwtable
define dso_local noundef zeroext i1 @_ZN3igl6opengl4glfw5imgui11ImGuiPlugin12mouse_scrollEf(ptr noundef nonnull readonly align 8 captures(none) dereferenceable(88) %0, float noundef %1) unnamed_addr #0 align 2 {
  %3 = getelementptr inbounds nuw i8, ptr %0, i64 40
  %4 = load ptr, ptr %3, align 8, !tbaa !4
  %5 = getelementptr inbounds nuw i8, ptr %4, i64 48
  %6 = load ptr, ptr %5, align 16, !tbaa !26
  %7 = fpext float %1 to double
  tail call void @_Z29ImGui_ImplGlfw_ScrollCallbackP10GLFWwindowdd(ptr noundef %6, double noundef 0.000000e+00, double noundef %7)
  %8 = tail call noundef nonnull align 8 dereferenceable(5464) ptr @_ZN5ImGui5GetIOEv()
  %9 = getelementptr inbounds nuw i8, ptr %8, i64 908
  %10 = load i8, ptr %9, align 4, !tbaa !84, !range !85, !noundef !86
  %11 = trunc nuw i8 %10 to i1
  ret i1 %11
}